target datalayout = "e-m:e-p270:32:32-p271:32:32-p272:64:64-i64:64-i128:128-f80:128-n8:16:32:64-S128"
target triple = "x86_64-pc-linux-gnu"

%struct.sigaction = type { %union.anon.10, %struct.__sigset_t, i32, ptr }
%union.anon.10 = type { ptr }
%struct.__sigset_t = type { [16 x i64] }

@pgroup = internal global i32 0, align 4
@old_term = internal global %struct.sigaction zeroinitializer, align 8
@parent = internal global i32 1, align 4
@parent_waiting = internal global i32 0, align 4
@exit_signal = internal global i32 0, align 4

; Function Attrs: nounwind uwtable
define internal void @fastcgi_cleanup(i32 noundef %0) #0 {
  %2 = alloca i32, align 4
  store i32 %0, ptr %2, align 4, !tbaa !73
  %3 = call i32 @sigaction(i32 noundef 15, ptr noundef @old_term, ptr noundef null) #20
  %4 = load i32, ptr @pgroup, align 4, !tbaa !73
  %5 = sub nsw i32 0, %4
  %6 = call i32 @kill(i32 noundef %5, i32 noundef 15) #20
  %7 = load i32, ptr @parent, align 4, !tbaa !73
  %8 = icmp ne i32 %7, 0
  br i1 %8, label %9, label %13

9:                                                ; preds = %1
  %10 = load i32, ptr @parent_waiting, align 4, !tbaa !73
  %11 = icmp ne i32 %10, 0
  br i1 %11, label %12, label %13

12:                                               ; preds = %9
  store volatile i32 1, ptr @exit_signal, align 4, !tbaa !73
  br label %14

13:                                               ; preds = %9, %1
  call void @_exit(i32 noundef 0) #28
  unreachable

14:                                               ; preds = %12
  ret void
}