; Function Attrs: nounwind uwtable
define internal void @fastcgi_cleanup(i32 %0) #0 {
  %2 = tail call i32 @sigaction(i32 noundef 15, ptr noundef nonnull @old_term, ptr noundef null) #29
  %3 = load i32, ptr @pgroup, align 4, !tbaa !65
  %4 = sub nsw i32 0, %3
  %5 = tail call i32 @kill(i32 noundef %4, i32 noundef 15) #29
  %.b = load i1, ptr @parent, align 4
  %not..b = xor i1 %.b, true
  %.b2 = load i1, ptr @parent_waiting, align 4
  %or.cond = select i1 %not..b, i1 %.b2, i1 false
  br i1 %or.cond, label %6, label %7

6:                                                ; preds = %1
  store volatile i32 1, ptr @exit_signal, align 4, !tbaa !65
  ret void

7:                                                ; preds = %1
  tail call void @_exit(i32 noundef 0) #38
  unreachable
}